(dp0
S'Kiev'
p1
S'Cold'
p2
sS'Paris'
p3
S'Warm'
p4
sS'Christchurch'
p5
g2
sS'Rio de Janeiro'
p6
g4
sS'Johannesburg'
p7
g4
sS'San Francisco'
p8
g4
sS'Sao Paulo'
p9
g4
sS'Shenzhen'
p10
g4
sS'Chennai'
p11
g4
sS'Abu Dhabi'
p12
g4
sS'Delhi'
p13
g4
sS'Jaipur'
p14
g4
sS'Brussels'
p15
g2
sS'Dubai'
p16
g4
sS'Honolulu'
p17
g4
sS'Miami'
p18
g4
sS'Burgas'
p19
g4
sS'Dublin'
p20
g2
sS'Rome'
p21
g4
sS'Denpasar'
p22
g4
sS'Punta Cana'
p23
g4
sS'Siem Reap'
p24
g4
sS'Macau'
p25
g4
sS'Cairo'
p26
g4
sS'Milan'
p27
g4
sS'London'
p28
g2
sS'Sharm el-Sheikh'
p29
g4
sS'Chiang Mai'
p30
g4
sS'Agra'
p31
g4
sS'Mecca'
p32
g4
sS'Auckland'
p33
g2
sS'Guilin'
p34
g4
sS'Sydney'
p35
g2
sS'Amman'
p36
g4
sS'Ho Chi Minh City'
p37
g4
sS'Vienna'
p38
g4
sS'Seoul'
p39
g4
sS'Singapore'
p40
g4
sS'New York City'
p41
g4
sS'Moscow'
p42
g4
sS'Guangzhou'
p43
g4
sS'Kuala Lumpur'
p44
g4
sS'Berlin'
p45
g2
sS'Los Angeles'
p46
g4
sS'Hangzhou'
p47
g4
sS'Frankfurt'
p48
g2
sS'Madrid'
p49
g4
sS'Baku'
p50
g4
sS'Zhuhai'
p51
g4
sS'Sousse'
p52
g4
sS'Las Vegas'
p53
g4
sS'Mugla'
p54
g4
sS'Mexico City'
p55
g4
sS'Istanbul'
p56
g4
sS'Hanoi'
p57
g4
sS'Manama'
p58
g4
sS'Manila'
p59
g4
sS'Nice'
p60
g4
sS'East Province'
p61
g4
sS'Cancun'
p62
g4
sS'Marrakech'
p63
g4
sS'Hong Kong'
p64
g4
sS'Toronto'
p65
g4
sS'Tokyo'
p66
g4
sS'Orlando'
p67
g4
sS'Nairobi'
p68
g4
sS'Bucharest'
p69
g4
sS'Beijing'
p70
g4
sS'Harare'
p71
g4
sS'Edirne'
p72
g4
sS'Lima'
p73
g4
sS'Florence'
p74
g4
sS'Venice'
p75
g4
sS'Mumbai'
p76
g4
sS'Shanghai'
p77
g4
sS'Kolkata'
p78
g4
sS'Vancouver'
p79
g4
sS'Pattaya'
p80
g4
sS'Phuket'
p81
g4
sS'Buenos Aires'
p82
g4
sS'Munich'
p83
g4
sS'Bangkok'
p84
g4
sS'Budapest'
p85
g4
sS'Taipei City'
p86
g4
sS'Jakarta'
p87
g4
sS'Barcelona'
p88
g4
sS'Melbourne'
p89
g2
sS'Antalya'
p90
g4
sS'Suzhou'
p91
g4
sS'Washington D.C.'
p92
g4
sS'Doha'
p93
g4
sS'Riyadh'
p94
g4
sS'St Petersburg'
p95
g4
sS'Prague'
p96
g4
sS'Sofia'
p97
g4
sS'Nanjing'
p98
g4
sS'Djerba'
p99
g4
sS'Lisbon'
p100
g4
sS'Amsterdam'
p101
g2
sS'Warsaw'
p102
g4
s.