(dp0
S'Kiev'
p1
S'Cold'
p2
sS'Paris'
p3
g2
sS'Christchurch'
p4
S'Warm'
p5
sS'Rio de Janeiro'
p6
g5
sS'Johannesburg'
p7
g5
sS'San Francisco'
p8
g5
sS'Sao Paulo'
p9
g5
sS'Shenzhen'
p10
g5
sS'Chennai'
p11
g5
sS'Abu Dhabi'
p12
g2
sS'Delhi'
p13
g5
sS'Jaipur'
p14
g5
sS'Brussels'
p15
g2
sS'Dubai'
p16
g5
sS'Honolulu'
p17
g5
sS'Miami'
p18
g5
sS'Burgas'
p19
g2
sS'Dublin'
p20
g2
sS'Rome'
p21
g2
sS'Denpasar'
p22
g5
sS'Punta Cana'
p23
g5
sS'Siem Reap'
p24
g5
sS'Macau'
p25
g5
sS'Cairo'
p26
g2
sS'Milan'
p27
g2
sS'London'
p28
g2
sS'Sharm el-Sheikh'
p29
g5
sS'Chiang Mai'
p30
g5
sS'Agra'
p31
g5
sS'Mecca'
p32
g2
sS'Auckland'
p33
g5
sS'Guilin'
p34
g2
sS'Sydney'
p35
g5
sS'Amman'
p36
g2
sS'Ho Chi Minh City'
p37
g5
sS'Vienna'
p38
g2
sS'Seoul'
p39
g2
sS'Singapore'
p40
g5
sS'New York City'
p41
g2
sS'Moscow'
p42
g2
sS'Guangzhou'
p43
g5
sS'Kuala Lumpur'
p44
g5
sS'Berlin'
p45
g2
sS'Los Angeles'
p46
g2
sS'Hangzhou'
p47
g2
sS'Frankfurt'
p48
g2
sS'Madrid'
p49
g2
sS'Baku'
p50
g5
sS'Zhuhai'
p51
g5
sS'Sousse'
p52
g2
sS'Las Vegas'
p53
g2
sS'Mugla'
p54
g2
sS'Mexico City'
p55
g5
sS'Istanbul'
p56
g2
sS'Hanoi'
p57
g5
sS'Manama'
p58
g5
sS'Manila'
p59
g5
sS'Nice'
p60
g2
sS'East Province'
p61
g5
sS'Cancun'
p62
g2
sS'Marrakech'
p63
g2
sS'Hong Kong'
p64
g5
sS'Toronto'
p65
g2
sS'Tokyo'
p66
g2
sS'Orlando'
p67
g5
sS'Nairobi'
p68
g5
sS'Bucharest'
p69
g2
sS'Beijing'
p70
g2
sS'Harare'
p71
g5
sS'Edirne'
p72
g2
sS'Lima'
p73
g5
sS'Florence'
p74
g2
sS'Venice'
p75
g5
sS'Mumbai'
p76
g5
sS'Shanghai'
p77
g2
sS'Kolkata'
p78
g5
sS'Vancouver'
p79
g2
sS'Pattaya'
p80
g5
sS'Phuket'
p81
g5
sS'Buenos Aires'
p82
g5
sS'Munich'
p83
g2
sS'Bangkok'
p84
g5
sS'Budapest'
p85
g2
sS'Taipei City'
p86
g5
sS'Jakarta'
p87
g5
sS'Barcelona'
p88
g2
sS'Melbourne'
p89
g5
sS'Antalya'
p90
g2
sS'Suzhou'
p91
g2
sS'Washington D.C.'
p92
g2
sS'Doha'
p93
g5
sS'Riyadh'
p94
g5
sS'St Petersburg'
p95
g5
sS'Prague'
p96
g2
sS'Sofia'
p97
g5
sS'Nanjing'
p98
g2
sS'Djerba'
p99
g2
sS'Lisbon'
p100
g2
sS'Amsterdam'
p101
g2
sS'Warsaw'
p102
g2
s.